target datalayout = "e-m:e-p270:32:32-p271:32:32-p272:64:64-i64:64-i128:128-f80:128-n8:16:32:64-S128"
target triple = "x86_64-pc-linux-gnu"

%struct._packet_info = type { ptr, ptr, i32, i32, %struct.nstime_t, %struct.nstime_t, %struct.nstime_t, i8, ptr, ptr, ptr, ptr, %struct._address, %struct._address, %struct._address, %struct._address, %struct._address, %struct._address, i32, ptr, i8, [3 x i8], %struct.anon, i32, i32, i32, i32, ptr, i8, ptr, ptr, i16, i16, i32, i32, i16, i32, i32, ptr, ptr, ptr, i8, i8, i16, i16, i16, i32, i16, i16, ptr, ptr, ptr, ptr, ptr, i32, i32 }
%struct.nstime_t = type { i64, i32 }
%struct._address = type { i32, i32, ptr, ptr }
%struct.anon = type { i8, [3 x i8] }
%struct._proto_node = type { ptr, ptr, ptr, ptr, ptr, ptr, ptr }
%struct.field_info = type { ptr, i32, i32, i32, i32, i32, i32, ptr, ptr, ptr, i32, i32 }

@hf_lldp_tlv_type = internal global i32 0, align 4
@hf_lldp_tlv_len = internal global i32 0, align 4
@hf_time_to_live = internal global i32 0, align 4
@hf_pdu_type = internal global i32 0, align 4
@ett_time_to_live = internal global i32 0, align 4
@column_info_selection = internal global i32 1, align 4
@.str.1195 = private unnamed_addr constant [22 x i8] c"Time To Live = %u sec\00", align 1
@.str.1196 = private unnamed_addr constant [14 x i8] c"Normal LLDPDU\00", align 1
@.str.1197 = private unnamed_addr constant [50 x i8] c"Discard all info for this MSAP (Time To Live = 0)\00", align 1
@.str.1198 = private unnamed_addr constant [16 x i8] c"Shutdown LLDPDU\00", align 1
@.str.1199 = private unnamed_addr constant [4 x i8] c"%u \00", align 1
@.str.1200 = private unnamed_addr constant [4 x i8] c"%s \00", align 1
@.str.1201 = private unnamed_addr constant [20 x i8] c"0 (Shutdown LLDPDU)\00", align 1

; Function Attrs: inlinehint nounwind null_pointer_is_valid sspstrong uwtable
define internal void @proto_item_set_generated(ptr noundef %0) #6 {
  %2 = alloca ptr, align 8
  store ptr %0, ptr %2, align 8
  %3 = load ptr, ptr %2, align 8
  %4 = icmp ne ptr %3, null
  br i1 %4, label %5, label %24

5:                                                ; preds = %1
  br label %6

6:                                                ; preds = %5
  %7 = load ptr, ptr %2, align 8
  %8 = getelementptr inbounds nuw %struct._proto_node, ptr %7, i32 0, i32 5
  %9 = load ptr, ptr %8, align 8
  %10 = icmp ne ptr %9, null
  br i1 %10, label %11, label %22

11:                                               ; preds = %6
  %12 = load ptr, ptr %2, align 8
  %13 = getelementptr inbounds nuw %struct._proto_node, ptr %12, i32 0, i32 5
  %14 = load ptr, ptr %13, align 8
  %15 = getelementptr inbounds nuw %struct.field_info, ptr %14, i32 0, i32 6
  %16 = load i32, ptr %15, align 4
  %17 = or i32 %16, 2
  %18 = load ptr, ptr %2, align 8
  %19 = getelementptr inbounds nuw %struct._proto_node, ptr %18, i32 0, i32 5
  %20 = load ptr, ptr %19, align 8
  %21 = getelementptr inbounds nuw %struct.field_info, ptr %20, i32 0, i32 6
  store i32 %17, ptr %21, align 4
  br label %22

22:                                               ; preds = %11, %6
  br label %23

23:                                               ; preds = %22
  br label %24

24:                                               ; preds = %23, %1
  ret void
}

; Function Attrs: null_pointer_is_valid sspstrong uwtable
define internal i32 @dissect_lldp_time_to_live(ptr noundef %0, ptr noundef %1, ptr noundef %2, i32 noundef %3, ptr noundef %4) #0 {
  %6 = alloca i32, align 4
  %7 = alloca ptr, align 8
  %8 = alloca ptr, align 8
  %9 = alloca ptr, align 8
  %10 = alloca i32, align 4
  %11 = alloca ptr, align 8
  %12 = alloca i8, align 1
  %13 = alloca i16, align 2
  %14 = alloca i32, align 4
  %15 = alloca ptr, align 8
  %16 = alloca ptr, align 8
  %17 = alloca i32, align 4
  store ptr %0, ptr %7, align 8
  store ptr %1, ptr %8, align 8
  store ptr %2, ptr %9, align 8
  store i32 %3, ptr %10, align 4
  store ptr %4, ptr %11, align 8
  call void @llvm.lifetime.start.p0(i64 1, ptr %12) #9
  call void @llvm.lifetime.start.p0(i64 2, ptr %13) #9
  call void @llvm.lifetime.start.p0(i64 4, ptr %14) #9
  store i32 0, ptr %14, align 4
  call void @llvm.lifetime.start.p0(i64 8, ptr %15) #9
  call void @llvm.lifetime.start.p0(i64 8, ptr %16) #9
  %18 = load ptr, ptr %7, align 8
  %19 = load i32, ptr %10, align 4
  %20 = call zeroext i16 @tvb_get_ntohs(ptr noundef %18, i32 noundef %19)
  store i16 %20, ptr %13, align 2
  %21 = load i16, ptr %13, align 2
  %22 = zext i16 %21 to i32
  %23 = and i32 %22, 65024
  %24 = ashr i32 %23, 9
  %25 = trunc i32 %24 to i8
  store i8 %25, ptr %12, align 1
  %26 = load i8, ptr %12, align 1
  %27 = zext i8 %26 to i32
  %28 = icmp ne i32 %27, 3
  br i1 %28, label %29, label %30

29:                                               ; preds = %5
  store i32 -1, ptr %6, align 4
  store i32 1, ptr %17, align 4
  br label %120

30:                                               ; preds = %5
  %31 = load i16, ptr %13, align 2
  %32 = zext i16 %31 to i32
  %33 = and i32 %32, 511
  store i32 %33, ptr %14, align 4
  %34 = load ptr, ptr %7, align 8
  %35 = load i32, ptr %10, align 4
  %36 = add i32 %35, 2
  %37 = call zeroext i16 @tvb_get_ntohs(ptr noundef %34, i32 noundef %36)
  store i16 %37, ptr %13, align 2
  %38 = load i16, ptr %13, align 2
  %39 = icmp ne i16 %38, 0
  %40 = xor i1 %39, true
  %41 = zext i1 %40 to i32
  %42 = trunc i32 %41 to i16
  %43 = load ptr, ptr %11, align 8
  store i16 %42, ptr %43, align 2
  %44 = load i16, ptr %13, align 2
  %45 = zext i16 %44 to i32
  %46 = icmp ne i32 %45, 0
  br i1 %46, label %47, label %65

47:                                               ; preds = %30
  %48 = load ptr, ptr %9, align 8
  %49 = load ptr, ptr %7, align 8
  %50 = load i32, ptr %10, align 4
  %51 = load i32, ptr %14, align 4
  %52 = add i32 %51, 2
  %53 = load i32, ptr @ett_time_to_live, align 4
  %54 = load i16, ptr %13, align 2
  %55 = zext i16 %54 to i32
  %56 = call ptr (ptr, ptr, i32, i32, i32, ptr, ptr, ...) @proto_tree_add_subtree_format(ptr noundef %48, ptr noundef %49, i32 noundef %50, i32 noundef %52, i32 noundef %53, ptr noundef null, ptr noundef @.str.1195, i32 noundef %55)
  store ptr %56, ptr %15, align 8
  %57 = load ptr, ptr %15, align 8
  %58 = load i32, ptr @hf_pdu_type, align 4
  %59 = load ptr, ptr %7, align 8
  %60 = load i32, ptr %10, align 4
  %61 = load i32, ptr %14, align 4
  %62 = add i32 %61, 2
  %63 = call ptr (ptr, i32, ptr, i32, i32, ptr, ...) @proto_tree_add_none_format(ptr noundef %57, i32 noundef %58, ptr noundef %59, i32 noundef %60, i32 noundef %62, ptr noundef @.str.1196)
  store ptr %63, ptr %16, align 8
  %64 = load ptr, ptr %16, align 8
  call void @proto_item_set_generated(ptr noundef %64)
  br label %81

65:                                               ; preds = %30
  %66 = load ptr, ptr %9, align 8
  %67 = load ptr, ptr %7, align 8
  %68 = load i32, ptr %10, align 4
  %69 = load i32, ptr %14, align 4
  %70 = add i32 %69, 2
  %71 = load i32, ptr @ett_time_to_live, align 4
  %72 = call ptr (ptr, ptr, i32, i32, i32, ptr, ptr, ...) @proto_tree_add_subtree_format(ptr noundef %66, ptr noundef %67, i32 noundef %68, i32 noundef %70, i32 noundef %71, ptr noundef null, ptr noundef @.str.1197)
  store ptr %72, ptr %15, align 8
  %73 = load ptr, ptr %15, align 8
  %74 = load i32, ptr @hf_pdu_type, align 4
  %75 = load ptr, ptr %7, align 8
  %76 = load i32, ptr %10, align 4
  %77 = load i32, ptr %14, align 4
  %78 = add i32 %77, 2
  %79 = call ptr (ptr, i32, ptr, i32, i32, ptr, ...) @proto_tree_add_none_format(ptr noundef %73, i32 noundef %74, ptr noundef %75, i32 noundef %76, i32 noundef %78, ptr noundef @.str.1198)
  store ptr %79, ptr %16, align 8
  %80 = load ptr, ptr %16, align 8
  call void @proto_item_set_generated(ptr noundef %80)
  br label %81

81:                                               ; preds = %65, %47
  %82 = load ptr, ptr %15, align 8
  %83 = load i32, ptr @hf_lldp_tlv_type, align 4
  %84 = load ptr, ptr %7, align 8
  %85 = load i32, ptr %10, align 4
  %86 = call ptr @proto_tree_add_item(ptr noundef %82, i32 noundef %83, ptr noundef %84, i32 noundef %85, i32 noundef 2, i32 noundef 0)
  %87 = load ptr, ptr %15, align 8
  %88 = load i32, ptr @hf_lldp_tlv_len, align 4
  %89 = load ptr, ptr %7, align 8
  %90 = load i32, ptr %10, align 4
  %91 = call ptr @proto_tree_add_item(ptr noundef %87, i32 noundef %88, ptr noundef %89, i32 noundef %90, i32 noundef 2, i32 noundef 0)
  %92 = load i32, ptr %10, align 4
  %93 = add i32 %92, 2
  store i32 %93, ptr %10, align 4
  %94 = load ptr, ptr %15, align 8
  %95 = load i32, ptr @hf_time_to_live, align 4
  %96 = load ptr, ptr %7, align 8
  %97 = load i32, ptr %10, align 4
  %98 = call ptr @proto_tree_add_item(ptr noundef %94, i32 noundef %95, ptr noundef %96, i32 noundef %97, i32 noundef 2, i32 noundef 0)
  %99 = load i32, ptr %10, align 4
  %100 = add i32 %99, 2
  store i32 %100, ptr %10, align 4
  %101 = load i32, ptr @column_info_selection, align 4
  %102 = icmp eq i32 %101, 1
  br i1 %102, label %103, label %118

103:                                              ; preds = %81
  %104 = load i16, ptr %13, align 2
  %105 = zext i16 %104 to i32
  %106 = icmp ne i32 %105, 0
  br i1 %106, label %107, label %113

107:                                              ; preds = %103
  %108 = load ptr, ptr %8, align 8
  %109 = getelementptr inbounds nuw %struct._packet_info, ptr %108, i32 0, i32 1
  %110 = load ptr, ptr %109, align 8
  %111 = load i16, ptr %13, align 2
  %112 = zext i16 %111 to i32
  call void (ptr, i32, ptr, ...) @col_append_fstr(ptr noundef %110, i32 noundef 25, ptr noundef @.str.1199, i32 noundef %112)
  br label %117

113:                                              ; preds = %103
  %114 = load ptr, ptr %8, align 8
  %115 = getelementptr inbounds nuw %struct._packet_info, ptr %114, i32 0, i32 1
  %116 = load ptr, ptr %115, align 8
  call void (ptr, i32, ptr, ...) @col_append_fstr(ptr noundef %116, i32 noundef 25, ptr noundef @.str.1200, ptr noundef @.str.1201)
  br label %117

117:                                              ; preds = %113, %107
  br label %118

118:                                              ; preds = %117, %81
  %119 = load i32, ptr %10, align 4
  store i32 %119, ptr %6, align 4
  store i32 1, ptr %17, align 4
  br label %120

120:                                              ; preds = %118, %29
  call void @llvm.lifetime.end.p0(i64 8, ptr %16) #9
  call void @llvm.lifetime.end.p0(i64 8, ptr %15) #9
  call void @llvm.lifetime.end.p0(i64 4, ptr %14) #9
  call void @llvm.lifetime.end.p0(i64 2, ptr %13) #9
  call void @llvm.lifetime.end.p0(i64 1, ptr %12) #9
  %121 = load i32, ptr %6, align 4
  ret i32 %121
}