; Function Attrs: null_pointer_is_valid sspstrong uwtable
define internal fastcc range(i32 -1, 5) i32 @dissect_lldp_time_to_live(ptr noundef %0, ptr noundef readonly captures(none) %1, ptr noundef %2, ptr noundef writeonly captures(none) %3) unnamed_addr #0 {
  %5 = tail call zeroext i16 @tvb_get_ntohs(ptr noundef %0, i32 noundef 0)
  %.mask = and i16 %5, -512
  %.not = icmp eq i16 %.mask, 1536
  br i1 %.not, label %6, label %43

6:                                                ; preds = %4
  %7 = and i16 %5, 511
  %8 = tail call zeroext i16 @tvb_get_ntohs(ptr noundef %0, i32 noundef 2)
  %.not47 = icmp eq i16 %8, 0
  %9 = zext i1 %.not47 to i16
  store i16 %9, ptr %3, align 2
  %10 = zext i16 %8 to i32
  %narrow = add nuw nsw i16 %7, 2
  %11 = zext nneg i16 %narrow to i32
  %12 = load i32, ptr @ett_time_to_live, align 4
  br i1 %.not47, label %20, label %13

13:                                               ; preds = %6
  %14 = tail call ptr (ptr, ptr, i32, i32, i32, ptr, ptr, ...) @proto_tree_add_subtree_format(ptr noundef %2, ptr noundef %0, i32 noundef 0, i32 noundef %11, i32 noundef %12, ptr noundef null, ptr noundef nonnull @.str.1195, i32 noundef %10)
  %15 = load i32, ptr @hf_pdu_type, align 4
  %16 = tail call ptr (ptr, i32, ptr, i32, i32, ptr, ...) @proto_tree_add_none_format(ptr noundef %14, i32 noundef %15, ptr noundef %0, i32 noundef 0, i32 noundef %11, ptr noundef nonnull @.str.1196)
  %.not.i = icmp eq ptr %16, null
  br i1 %.not.i, label %proto_item_set_generated.exit, label %17

17:                                               ; preds = %13
  %18 = getelementptr inbounds nuw i8, ptr %16, i64 40
  %19 = load ptr, ptr %18, align 8
  %.not5.i = icmp eq ptr %19, null
  br i1 %.not5.i, label %proto_item_set_generated.exit, label %proto_item_set_generated.exit.sink.split

20:                                               ; preds = %6
  %21 = tail call ptr (ptr, ptr, i32, i32, i32, ptr, ptr, ...) @proto_tree_add_subtree_format(ptr noundef %2, ptr noundef %0, i32 noundef 0, i32 noundef %11, i32 noundef %12, ptr noundef null, ptr noundef nonnull @.str.1197)
  %22 = load i32, ptr @hf_pdu_type, align 4
  %23 = tail call ptr (ptr, i32, ptr, i32, i32, ptr, ...) @proto_tree_add_none_format(ptr noundef %21, i32 noundef %22, ptr noundef %0, i32 noundef 0, i32 noundef %11, ptr noundef nonnull @.str.1198)
  %.not.i49 = icmp eq ptr %23, null
  br i1 %.not.i49, label %proto_item_set_generated.exit, label %24

24:                                               ; preds = %20
  %25 = getelementptr inbounds nuw i8, ptr %23, i64 40
  %26 = load ptr, ptr %25, align 8
  %.not5.i50 = icmp eq ptr %26, null
  br i1 %.not5.i50, label %proto_item_set_generated.exit, label %proto_item_set_generated.exit.sink.split

proto_item_set_generated.exit.sink.split:         ; preds = %24, %17
  %.sink54 = phi ptr [ %19, %17 ], [ %26, %24 ]
  %.0.ph = phi ptr [ %14, %17 ], [ %21, %24 ]
  %27 = getelementptr inbounds nuw i8, ptr %.sink54, i64 28
  %28 = load i32, ptr %27, align 4
  %29 = or i32 %28, 2
  store i32 %29, ptr %27, align 4
  br label %proto_item_set_generated.exit

proto_item_set_generated.exit:                    ; preds = %proto_item_set_generated.exit.sink.split, %24, %20, %17, %13
  %.0 = phi ptr [ %14, %13 ], [ %14, %17 ], [ %21, %20 ], [ %21, %24 ], [ %.0.ph, %proto_item_set_generated.exit.sink.split ]
  %30 = load i32, ptr @hf_lldp_tlv_type, align 4
  %31 = tail call ptr @proto_tree_add_item(ptr noundef %.0, i32 noundef %30, ptr noundef %0, i32 noundef 0, i32 noundef 2, i32 noundef 0)
  %32 = load i32, ptr @hf_lldp_tlv_len, align 4
  %33 = tail call ptr @proto_tree_add_item(ptr noundef %.0, i32 noundef %32, ptr noundef %0, i32 noundef 0, i32 noundef 2, i32 noundef 0)
  %34 = load i32, ptr @hf_time_to_live, align 4
  %35 = tail call ptr @proto_tree_add_item(ptr noundef %.0, i32 noundef %34, ptr noundef %0, i32 noundef 2, i32 noundef 2, i32 noundef 0)
  %36 = load i32, ptr @column_info_selection, align 4
  %37 = icmp eq i32 %36, 1
  br i1 %37, label %38, label %43

38:                                               ; preds = %proto_item_set_generated.exit
  %39 = getelementptr inbounds nuw i8, ptr %1, i64 8
  %40 = load ptr, ptr %39, align 8
  br i1 %.not47, label %42, label %41

41:                                               ; preds = %38
  tail call void (ptr, i32, ptr, ...) @col_append_fstr(ptr noundef %40, i32 noundef 25, ptr noundef nonnull @.str.1199, i32 noundef %10)
  br label %43

42:                                               ; preds = %38
  tail call void (ptr, i32, ptr, ...) @col_append_fstr(ptr noundef %40, i32 noundef 25, ptr noundef nonnull @.str.1200, ptr noundef nonnull @.str.1201)
  br label %43

43:                                               ; preds = %proto_item_set_generated.exit, %42, %41, %4
  %.045 = phi i32 [ -1, %4 ], [ 4, %41 ], [ 4, %42 ], [ 4, %proto_item_set_generated.exit ]
  ret i32 %.045
}